target datalayout = "e-m:e-p270:32:32-p271:32:32-p272:64:64-i64:64-i128:128-f80:128-n8:16:32:64-S128"
target triple = "x86_64-pc-linux-gnu"

%struct.stbtt__buf = type { ptr, i32, i32 }
%struct.stbtt_fontinfo = type { ptr, ptr, i32, i32, i32, i32, i32, i32, i32, i32, i32, i32, i32, i32, %struct.stbtt__buf, %struct.stbtt__buf, %struct.stbtt__buf, %struct.stbtt__buf, %struct.stbtt__buf, %struct.stbtt__buf }

@.str.15 = private unnamed_addr constant [5 x i8] c"OS/2\00", align 1

; Function Attrs: nounwind uwtable
define i32 @ttULONG(ptr noundef %0) #0 {
  %2 = alloca ptr, align 8
  store ptr %0, ptr %2, align 8, !tbaa !25
  %3 = load ptr, ptr %2, align 8, !tbaa !25
  %4 = getelementptr inbounds i8, ptr %3, i64 0
  %5 = load i8, ptr %4, align 1, !tbaa !13
  %6 = zext i8 %5 to i32
  %7 = shl i32 %6, 24
  %8 = load ptr, ptr %2, align 8, !tbaa !25
  %9 = getelementptr inbounds i8, ptr %8, i64 1
  %10 = load i8, ptr %9, align 1, !tbaa !13
  %11 = zext i8 %10 to i32
  %12 = shl i32 %11, 16
  %13 = add nsw i32 %7, %12
  %14 = load ptr, ptr %2, align 8, !tbaa !25
  %15 = getelementptr inbounds i8, ptr %14, i64 2
  %16 = load i8, ptr %15, align 1, !tbaa !13
  %17 = zext i8 %16 to i32
  %18 = shl i32 %17, 8
  %19 = add nsw i32 %13, %18
  %20 = load ptr, ptr %2, align 8, !tbaa !25
  %21 = getelementptr inbounds i8, ptr %20, i64 3
  %22 = load i8, ptr %21, align 1, !tbaa !13
  %23 = zext i8 %22 to i32
  %24 = add nsw i32 %19, %23
  ret i32 %24
}

; Function Attrs: nounwind uwtable
define zeroext i16 @ttUSHORT(ptr noundef %0) #0 {
  %2 = alloca ptr, align 8
  store ptr %0, ptr %2, align 8, !tbaa !25
  %3 = load ptr, ptr %2, align 8, !tbaa !25
  %4 = getelementptr inbounds i8, ptr %3, i64 0
  %5 = load i8, ptr %4, align 1, !tbaa !13
  %6 = zext i8 %5 to i32
  %7 = mul nsw i32 %6, 256
  %8 = load ptr, ptr %2, align 8, !tbaa !25
  %9 = getelementptr inbounds i8, ptr %8, i64 1
  %10 = load i8, ptr %9, align 1, !tbaa !13
  %11 = zext i8 %10 to i32
  %12 = add nsw i32 %7, %11
  %13 = trunc i32 %12 to i16
  ret i16 %13
}

; Function Attrs: nounwind uwtable
define signext i16 @ttSHORT(ptr noundef %0) #0 {
  %2 = alloca ptr, align 8
  store ptr %0, ptr %2, align 8, !tbaa !25
  %3 = load ptr, ptr %2, align 8, !tbaa !25
  %4 = getelementptr inbounds i8, ptr %3, i64 0
  %5 = load i8, ptr %4, align 1, !tbaa !13
  %6 = zext i8 %5 to i32
  %7 = mul nsw i32 %6, 256
  %8 = load ptr, ptr %2, align 8, !tbaa !25
  %9 = getelementptr inbounds i8, ptr %8, i64 1
  %10 = load i8, ptr %9, align 1, !tbaa !13
  %11 = zext i8 %10 to i32
  %12 = add nsw i32 %7, %11
  %13 = trunc i32 %12 to i16
  ret i16 %13
}

; Function Attrs: nounwind uwtable
define i32 @stbtt__find_table(ptr noundef %0, i32 noundef %1, ptr noundef %2) #0 {
  %4 = alloca i32, align 4
  %5 = alloca ptr, align 8
  %6 = alloca i32, align 4
  %7 = alloca ptr, align 8
  %8 = alloca i32, align 4
  %9 = alloca i32, align 4
  %10 = alloca i32, align 4
  %11 = alloca i32, align 4
  %12 = alloca i32, align 4
  store ptr %0, ptr %5, align 8, !tbaa !25
  store i32 %1, ptr %6, align 4, !tbaa !14
  store ptr %2, ptr %7, align 8, !tbaa !25
  call void @llvm.lifetime.start.p0(i64 4, ptr %8) #8
  %13 = load ptr, ptr %5, align 8, !tbaa !25
  %14 = load i32, ptr %6, align 4, !tbaa !14
  %15 = zext i32 %14 to i64
  %16 = getelementptr inbounds nuw i8, ptr %13, i64 %15
  %17 = getelementptr inbounds i8, ptr %16, i64 4
  %18 = call zeroext i16 @ttUSHORT(ptr noundef %17)
  %19 = zext i16 %18 to i32
  store i32 %19, ptr %8, align 4, !tbaa !14
  call void @llvm.lifetime.start.p0(i64 4, ptr %9) #8
  %20 = load i32, ptr %6, align 4, !tbaa !14
  %21 = add i32 %20, 12
  store i32 %21, ptr %9, align 4, !tbaa !14
  call void @llvm.lifetime.start.p0(i64 4, ptr %10) #8
  store i32 0, ptr %10, align 4, !tbaa !14
  br label %22

22:                                               ; preds = %97, %3
  %23 = load i32, ptr %10, align 4, !tbaa !14
  %24 = load i32, ptr %8, align 4, !tbaa !14
  %25 = icmp slt i32 %23, %24
  br i1 %25, label %26, label %100

26:                                               ; preds = %22
  call void @llvm.lifetime.start.p0(i64 4, ptr %11) #8
  %27 = load i32, ptr %9, align 4, !tbaa !14
  %28 = load i32, ptr %10, align 4, !tbaa !14
  %29 = mul nsw i32 16, %28
  %30 = add i32 %27, %29
  store i32 %30, ptr %11, align 4, !tbaa !14
  %31 = load ptr, ptr %5, align 8, !tbaa !25
  %32 = load i32, ptr %11, align 4, !tbaa !14
  %33 = zext i32 %32 to i64
  %34 = getelementptr inbounds nuw i8, ptr %31, i64 %33
  %35 = getelementptr inbounds i8, ptr %34, i64 0
  %36 = getelementptr inbounds i8, ptr %35, i64 0
  %37 = load i8, ptr %36, align 1, !tbaa !13
  %38 = zext i8 %37 to i32
  %39 = load ptr, ptr %7, align 8, !tbaa !25
  %40 = getelementptr inbounds i8, ptr %39, i64 0
  %41 = load i8, ptr %40, align 1, !tbaa !13
  %42 = sext i8 %41 to i32
  %43 = icmp eq i32 %38, %42
  br i1 %43, label %44, label %93

44:                                               ; preds = %26
  %45 = load ptr, ptr %5, align 8, !tbaa !25
  %46 = load i32, ptr %11, align 4, !tbaa !14
  %47 = zext i32 %46 to i64
  %48 = getelementptr inbounds nuw i8, ptr %45, i64 %47
  %49 = getelementptr inbounds i8, ptr %48, i64 0
  %50 = getelementptr inbounds i8, ptr %49, i64 1
  %51 = load i8, ptr %50, align 1, !tbaa !13
  %52 = zext i8 %51 to i32
  %53 = load ptr, ptr %7, align 8, !tbaa !25
  %54 = getelementptr inbounds i8, ptr %53, i64 1
  %55 = load i8, ptr %54, align 1, !tbaa !13
  %56 = sext i8 %55 to i32
  %57 = icmp eq i32 %52, %56
  br i1 %57, label %58, label %93

58:                                               ; preds = %44
  %59 = load ptr, ptr %5, align 8, !tbaa !25
  %60 = load i32, ptr %11, align 4, !tbaa !14
  %61 = zext i32 %60 to i64
  %62 = getelementptr inbounds nuw i8, ptr %59, i64 %61
  %63 = getelementptr inbounds i8, ptr %62, i64 0
  %64 = getelementptr inbounds i8, ptr %63, i64 2
  %65 = load i8, ptr %64, align 1, !tbaa !13
  %66 = zext i8 %65 to i32
  %67 = load ptr, ptr %7, align 8, !tbaa !25
  %68 = getelementptr inbounds i8, ptr %67, i64 2
  %69 = load i8, ptr %68, align 1, !tbaa !13
  %70 = sext i8 %69 to i32
  %71 = icmp eq i32 %66, %70
  br i1 %71, label %72, label %93

72:                                               ; preds = %58
  %73 = load ptr, ptr %5, align 8, !tbaa !25
  %74 = load i32, ptr %11, align 4, !tbaa !14
  %75 = zext i32 %74 to i64
  %76 = getelementptr inbounds nuw i8, ptr %73, i64 %75
  %77 = getelementptr inbounds i8, ptr %76, i64 0
  %78 = getelementptr inbounds i8, ptr %77, i64 3
  %79 = load i8, ptr %78, align 1, !tbaa !13
  %80 = zext i8 %79 to i32
  %81 = load ptr, ptr %7, align 8, !tbaa !25
  %82 = getelementptr inbounds i8, ptr %81, i64 3
  %83 = load i8, ptr %82, align 1, !tbaa !13
  %84 = sext i8 %83 to i32
  %85 = icmp eq i32 %80, %84
  br i1 %85, label %86, label %93

86:                                               ; preds = %72
  %87 = load ptr, ptr %5, align 8, !tbaa !25
  %88 = load i32, ptr %11, align 4, !tbaa !14
  %89 = zext i32 %88 to i64
  %90 = getelementptr inbounds nuw i8, ptr %87, i64 %89
  %91 = getelementptr inbounds i8, ptr %90, i64 8
  %92 = call i32 @ttULONG(ptr noundef %91)
  store i32 %92, ptr %4, align 4
  store i32 1, ptr %12, align 4
  br label %94

93:                                               ; preds = %72, %58, %44, %26
  store i32 0, ptr %12, align 4
  br label %94

94:                                               ; preds = %93, %86
  call void @llvm.lifetime.end.p0(i64 4, ptr %11) #8
  %95 = load i32, ptr %12, align 4
  switch i32 %95, label %101 [
    i32 0, label %96
  ]

96:                                               ; preds = %94
  br label %97

97:                                               ; preds = %96
  %98 = load i32, ptr %10, align 4, !tbaa !14
  %99 = add nsw i32 %98, 1
  store i32 %99, ptr %10, align 4, !tbaa !14
  br label %22, !llvm.loop !26

100:                                              ; preds = %22
  store i32 0, ptr %4, align 4
  store i32 1, ptr %12, align 4
  br label %101

101:                                              ; preds = %100, %94
  call void @llvm.lifetime.end.p0(i64 4, ptr %10) #8
  call void @llvm.lifetime.end.p0(i64 4, ptr %9) #8
  call void @llvm.lifetime.end.p0(i64 4, ptr %8) #8
  %102 = load i32, ptr %4, align 4
  ret i32 %102
}

; Function Attrs: nounwind uwtable
define i32 @stbtt_GetFontVMetricsOS2(ptr noundef %0, ptr noundef %1, ptr noundef %2, ptr noundef %3) #0 {
  %5 = alloca i32, align 4
  %6 = alloca ptr, align 8
  %7 = alloca ptr, align 8
  %8 = alloca ptr, align 8
  %9 = alloca ptr, align 8
  %10 = alloca i32, align 4
  %11 = alloca i32, align 4
  store ptr %0, ptr %6, align 8, !tbaa !28
  store ptr %1, ptr %7, align 8, !tbaa !22
  store ptr %2, ptr %8, align 8, !tbaa !22
  store ptr %3, ptr %9, align 8, !tbaa !22
  call void @llvm.lifetime.start.p0(i64 4, ptr %10) #8
  %12 = load ptr, ptr %6, align 8, !tbaa !28
  %13 = getelementptr inbounds nuw %struct.stbtt_fontinfo, ptr %12, i32 0, i32 1
  %14 = load ptr, ptr %13, align 8, !tbaa !32
  %15 = load ptr, ptr %6, align 8, !tbaa !28
  %16 = getelementptr inbounds nuw %struct.stbtt_fontinfo, ptr %15, i32 0, i32 2
  %17 = load i32, ptr %16, align 8, !tbaa !33
  %18 = call i32 @stbtt__find_table(ptr noundef %14, i32 noundef %17, ptr noundef @.str.15)
  store i32 %18, ptr %10, align 4, !tbaa !14
  %19 = load i32, ptr %10, align 4, !tbaa !14
  %20 = icmp ne i32 %19, 0
  br i1 %20, label %22, label %21

21:                                               ; preds = %4
  store i32 0, ptr %5, align 4
  store i32 1, ptr %11, align 4
  br label %65

22:                                               ; preds = %4
  %23 = load ptr, ptr %7, align 8, !tbaa !22
  %24 = icmp ne ptr %23, null
  br i1 %24, label %25, label %36

25:                                               ; preds = %22
  %26 = load ptr, ptr %6, align 8, !tbaa !28
  %27 = getelementptr inbounds nuw %struct.stbtt_fontinfo, ptr %26, i32 0, i32 1
  %28 = load ptr, ptr %27, align 8, !tbaa !32
  %29 = load i32, ptr %10, align 4, !tbaa !14
  %30 = sext i32 %29 to i64
  %31 = getelementptr inbounds i8, ptr %28, i64 %30
  %32 = getelementptr inbounds i8, ptr %31, i64 68
  %33 = call signext i16 @ttSHORT(ptr noundef %32)
  %34 = sext i16 %33 to i32
  %35 = load ptr, ptr %7, align 8, !tbaa !22
  store i32 %34, ptr %35, align 4, !tbaa !14
  br label %36

36:                                               ; preds = %25, %22
  %37 = load ptr, ptr %8, align 8, !tbaa !22
  %38 = icmp ne ptr %37, null
  br i1 %38, label %39, label %50

39:                                               ; preds = %36
  %40 = load ptr, ptr %6, align 8, !tbaa !28
  %41 = getelementptr inbounds nuw %struct.stbtt_fontinfo, ptr %40, i32 0, i32 1
  %42 = load ptr, ptr %41, align 8, !tbaa !32
  %43 = load i32, ptr %10, align 4, !tbaa !14
  %44 = sext i32 %43 to i64
  %45 = getelementptr inbounds i8, ptr %42, i64 %44
  %46 = getelementptr inbounds i8, ptr %45, i64 70
  %47 = call signext i16 @ttSHORT(ptr noundef %46)
  %48 = sext i16 %47 to i32
  %49 = load ptr, ptr %8, align 8, !tbaa !22
  store i32 %48, ptr %49, align 4, !tbaa !14
  br label %50

50:                                               ; preds = %39, %36
  %51 = load ptr, ptr %9, align 8, !tbaa !22
  %52 = icmp ne ptr %51, null
  br i1 %52, label %53, label %64

53:                                               ; preds = %50
  %54 = load ptr, ptr %6, align 8, !tbaa !28
  %55 = getelementptr inbounds nuw %struct.stbtt_fontinfo, ptr %54, i32 0, i32 1
  %56 = load ptr, ptr %55, align 8, !tbaa !32
  %57 = load i32, ptr %10, align 4, !tbaa !14
  %58 = sext i32 %57 to i64
  %59 = getelementptr inbounds i8, ptr %56, i64 %58
  %60 = getelementptr inbounds i8, ptr %59, i64 72
  %61 = call signext i16 @ttSHORT(ptr noundef %60)
  %62 = sext i16 %61 to i32
  %63 = load ptr, ptr %9, align 8, !tbaa !22
  store i32 %62, ptr %63, align 4, !tbaa !14
  br label %64

64:                                               ; preds = %53, %50
  store i32 1, ptr %5, align 4
  store i32 1, ptr %11, align 4
  br label %65

65:                                               ; preds = %64, %21
  call void @llvm.lifetime.end.p0(i64 4, ptr %10) #8
  %66 = load i32, ptr %5, align 4
  ret i32 %66
}