; Function Attrs: nofree norecurse nosync nounwind memory(read, argmem: readwrite, inaccessiblemem: none) uwtable
define range(i32 0, 2) i32 @stbtt_GetFontVMetricsOS2(ptr noundef readonly captures(none) %0, ptr noundef writeonly captures(address_is_null) %1, ptr noundef writeonly captures(address_is_null) %2, ptr noundef writeonly captures(address_is_null) %3) local_unnamed_addr #3 {
  %5 = getelementptr inbounds nuw i8, ptr %0, i64 8
  %6 = load ptr, ptr %5, align 8, !tbaa !23
  %7 = getelementptr inbounds nuw i8, ptr %0, i64 16
  %8 = load i32, ptr %7, align 8, !tbaa !24
  %9 = zext i32 %8 to i64
  %10 = getelementptr inbounds nuw i8, ptr %6, i64 %9
  %11 = getelementptr inbounds nuw i8, ptr %10, i64 4
  %12 = load i8, ptr %11, align 1, !tbaa !12
  %13 = zext i8 %12 to i32
  %14 = shl nuw nsw i32 %13, 8
  %15 = getelementptr inbounds nuw i8, ptr %10, i64 5
  %16 = load i8, ptr %15, align 1, !tbaa !12
  %17 = zext i8 %16 to i32
  %18 = or disjoint i32 %14, %17
  %19 = add i32 %8, 12
  %.not.i = icmp eq i32 %18, 0
  br i1 %.not.i, label %stbtt__find_table.exit.thread, label %.lr.ph.i

.lr.ph.i:                                         ; preds = %4
  %wide.trip.count.i = zext nneg i32 %18 to i64
  br label %20

20:                                               ; preds = %39, %.lr.ph.i
  %indvars.iv.i = phi i64 [ 0, %.lr.ph.i ], [ %indvars.iv.next.i, %39 ]
  %indvars.iv.tr.i = trunc i64 %indvars.iv.i to i32
  %21 = shl i32 %indvars.iv.tr.i, 4
  %22 = add i32 %19, %21
  %23 = zext i32 %22 to i64
  %24 = getelementptr inbounds nuw i8, ptr %6, i64 %23
  %25 = load i8, ptr %24, align 1, !tbaa !12
  %26 = icmp eq i8 %25, 79
  br i1 %26, label %27, label %39

27:                                               ; preds = %20
  %28 = getelementptr inbounds nuw i8, ptr %24, i64 1
  %29 = load i8, ptr %28, align 1, !tbaa !12
  %30 = icmp eq i8 %29, 83
  br i1 %30, label %31, label %39

31:                                               ; preds = %27
  %32 = getelementptr inbounds nuw i8, ptr %24, i64 2
  %33 = load i8, ptr %32, align 1, !tbaa !12
  %34 = icmp eq i8 %33, 47
  br i1 %34, label %35, label %39

35:                                               ; preds = %31
  %36 = getelementptr inbounds nuw i8, ptr %24, i64 3
  %37 = load i8, ptr %36, align 1, !tbaa !12
  %38 = icmp eq i8 %37, 50
  br i1 %38, label %stbtt__find_table.exit, label %39

39:                                               ; preds = %35, %31, %27, %20
  %indvars.iv.next.i = add nuw nsw i64 %indvars.iv.i, 1
  %exitcond.not.i = icmp eq i64 %indvars.iv.next.i, %wide.trip.count.i
  br i1 %exitcond.not.i, label %stbtt__find_table.exit.thread, label %20, !llvm.loop !19

stbtt__find_table.exit:                           ; preds = %35
  %40 = getelementptr inbounds nuw i8, ptr %24, i64 8
  %41 = load i8, ptr %40, align 1, !tbaa !12
  %42 = zext i8 %41 to i32
  %43 = shl nuw i32 %42, 24
  %44 = getelementptr inbounds nuw i8, ptr %24, i64 9
  %45 = load i8, ptr %44, align 1, !tbaa !12
  %46 = zext i8 %45 to i32
  %47 = shl nuw nsw i32 %46, 16
  %48 = or disjoint i32 %47, %43
  %49 = getelementptr inbounds nuw i8, ptr %24, i64 10
  %50 = load i8, ptr %49, align 1, !tbaa !12
  %51 = zext i8 %50 to i32
  %52 = shl nuw nsw i32 %51, 8
  %53 = or disjoint i32 %48, %52
  %54 = getelementptr inbounds nuw i8, ptr %24, i64 11
  %55 = load i8, ptr %54, align 1, !tbaa !12
  %56 = zext i8 %55 to i32
  %57 = or disjoint i32 %53, %56
  %.not = icmp eq i32 %57, 0
  br i1 %.not, label %stbtt__find_table.exit.thread, label %58

58:                                               ; preds = %stbtt__find_table.exit
  %.not19 = icmp eq ptr %1, null
  br i1 %.not19, label %71, label %59

59:                                               ; preds = %58
  %60 = sext i32 %57 to i64
  %61 = getelementptr inbounds i8, ptr %6, i64 %60
  %62 = getelementptr inbounds nuw i8, ptr %61, i64 68
  %63 = load i8, ptr %62, align 1, !tbaa !12
  %64 = zext i8 %63 to i16
  %65 = shl nuw i16 %64, 8
  %66 = getelementptr inbounds nuw i8, ptr %61, i64 69
  %67 = load i8, ptr %66, align 1, !tbaa !12
  %68 = zext i8 %67 to i16
  %69 = or disjoint i16 %65, %68
  %70 = sext i16 %69 to i32
  store i32 %70, ptr %1, align 4, !tbaa !17
  br label %71

71:                                               ; preds = %59, %58
  %.not20 = icmp eq ptr %2, null
  br i1 %.not20, label %84, label %72

72:                                               ; preds = %71
  %73 = sext i32 %57 to i64
  %74 = getelementptr inbounds i8, ptr %6, i64 %73
  %75 = getelementptr inbounds nuw i8, ptr %74, i64 70
  %76 = load i8, ptr %75, align 1, !tbaa !12
  %77 = zext i8 %76 to i16
  %78 = shl nuw i16 %77, 8
  %79 = getelementptr inbounds nuw i8, ptr %74, i64 71
  %80 = load i8, ptr %79, align 1, !tbaa !12
  %81 = zext i8 %80 to i16
  %82 = or disjoint i16 %78, %81
  %83 = sext i16 %82 to i32
  store i32 %83, ptr %2, align 4, !tbaa !17
  br label %84

84:                                               ; preds = %72, %71
  %.not21 = icmp eq ptr %3, null
  br i1 %.not21, label %stbtt__find_table.exit.thread, label %85

85:                                               ; preds = %84
  %86 = sext i32 %57 to i64
  %87 = getelementptr inbounds i8, ptr %6, i64 %86
  %88 = getelementptr inbounds nuw i8, ptr %87, i64 72
  %89 = load i8, ptr %88, align 1, !tbaa !12
  %90 = zext i8 %89 to i16
  %91 = shl nuw i16 %90, 8
  %92 = getelementptr inbounds nuw i8, ptr %87, i64 73
  %93 = load i8, ptr %92, align 1, !tbaa !12
  %94 = zext i8 %93 to i16
  %95 = or disjoint i16 %91, %94
  %96 = sext i16 %95 to i32
  store i32 %96, ptr %3, align 4, !tbaa !17
  br label %stbtt__find_table.exit.thread

stbtt__find_table.exit.thread:                    ; preds = %39, %4, %84, %85, %stbtt__find_table.exit
  %.0 = phi i32 [ 0, %stbtt__find_table.exit ], [ 1, %85 ], [ 1, %84 ], [ 0, %4 ], [ 0, %39 ]
  ret i32 %.0
}